; Function Attrs: mustprogress uwtable
define internal noundef zeroext i1 @"_ZNSt17_Function_handlerIFbRKNSt7__cxx1112basic_stringIcSt11char_traitsIcESaIcEEEP5cmakeEZNS8_7SetArgsERKSt6vectorIS5_SaIS5_EEE4$_35E9_M_invokeERKSt9_Any_dataS7_OS9_"(ptr nocapture noundef nonnull readonly align 8 dereferenceable(16) %0, ptr noundef nonnull align 8 dereferenceable(32) %1, ptr nocapture noundef nonnull readonly align 8 dereferenceable(8) %2) #3 align 2 {
  %.val = load ptr, ptr %2, align 8
  %4 = tail call noundef zeroext i1 @_ZN5cmake27CreateAndSetGlobalGeneratorERKNSt7__cxx1112basic_stringIcSt11char_traitsIcESaIcEEEb(ptr noundef nonnull align 8 dereferenceable(2216) %.val, ptr noundef nonnull align 8 dereferenceable(32) %1, i1 noundef zeroext true)
  %5 = xor i1 %4, true
  %6 = load ptr, ptr %0, align 8
  %7 = zext i1 %5 to i8
  store i8 %7, ptr %6, align 1
  ret i1 %4
}